target datalayout = "e-m:e-p270:32:32-p271:32:32-p272:64:64-i64:64-i128:128-f80:128-n8:16:32:64-S128"
target triple = "x86_64-pc-linux-gnu"

%"struct.std::atomic" = type { %"struct.std::__atomic_base" }
%"struct.std::__atomic_base" = type { i32 }
%"struct.std::atomic.9" = type { %"struct.std::__atomic_base.10" }
%"struct.std::__atomic_base.10" = type { i64 }
%"struct.std::atomic.46" = type { %"struct.std::__atomic_base.47" }
%"struct.std::__atomic_base.47" = type { i32 }
%"struct.std::atomic.50" = type { %"struct.std::__atomic_base.51" }
%"struct.std::__atomic_base.51" = type { i8 }
%"struct.folly::detail::SingletonThreadLocalState::LocalCache" = type { ptr }
%"class.folly::RequestContext" = type { %"struct.folly::RequestContext::State", i64 }
%"struct.folly::RequestContext::State" = type <{ %"class.folly::hazptr_obj_cohort", %"struct.std::atomic.52", %"struct.std::atomic.9", %"class.folly::SharedMutexImpl", [4 x i8] }>
%"class.folly::hazptr_obj_cohort" = type { %"class.folly::hazptr_detail::shared_head_tail_list", %"struct.std::atomic.46", %"struct.std::atomic.50", %"struct.std::atomic.50", %"struct.std::atomic.48" }
%"class.folly::hazptr_detail::shared_head_tail_list" = type { %"struct.std::atomic.48", %"struct.std::atomic.48" }
%"struct.std::atomic.48" = type { %"struct.std::__atomic_base.49" }
%"struct.std::__atomic_base.49" = type { ptr }
%"struct.std::atomic.52" = type { %"struct.std::__atomic_base.53" }
%"struct.std::__atomic_base.53" = type { ptr }
%"class.folly::SharedMutexImpl" = type { %"struct.std::atomic" }
%"class.std::shared_ptr" = type { %"class.std::__shared_ptr" }
%"class.std::__shared_ptr" = type { ptr, %"class.std::__shared_count" }
%"class.std::__shared_count" = type { ptr }
%"struct.std::atomic.188" = type { %"struct.std::__atomic_base.189" }
%"struct.std::__atomic_base.189" = type { i64 }
%"struct.folly::RequestContext::StaticContext" = type { %"class.std::shared_ptr", %"struct.std::atomic.188" }
%"struct.folly::SingletonThreadLocal<folly::RequestContext::StaticContext, folly::RequestContext>::ObjectWrapper" = type { %"struct.folly::RequestContext::StaticContext" }

@__dso_handle = external hidden global i8
@_ZN5folly12_GLOBAL__N_122getStaticContextCalledE = internal thread_local global i8 0, align 1
@_ZZN5folly20SingletonThreadLocalINS_14RequestContext13StaticContextES1_NS_6detail11DefaultMakeIS2_EES1_E3getEvE5cache = linkonce_odr thread_local global %"struct.folly::detail::SingletonThreadLocalState::LocalCache" zeroinitializer, comdat, align 8
@_ZZN5folly14RequestContext3getEvE14defaultContext = internal global %"class.folly::RequestContext" zeroinitializer, align 8
@_ZGVZN5folly14RequestContext3getEvE14defaultContext = internal global i64 0, align 8
@_ZN5folly14RequestContextC1El = unnamed_addr alias void (ptr, i64), ptr @_ZN5folly14RequestContextC2El

; Function Attrs: alwaysinline mustprogress uwtable
define linkonce_odr noundef nonnull align 8 dereferenceable(24) ptr @_ZN5folly20SingletonThreadLocalINS_14RequestContext13StaticContextES1_NS_6detail11DefaultMakeIS2_EES1_E3getEv() #3 comdat align 2 {
  %1 = alloca ptr, align 8
  call void @llvm.lifetime.start.p0(i64 8, ptr %1) #12
  %2 = call align 8 ptr @llvm.threadlocal.address.p0(ptr align 8 @_ZZN5folly20SingletonThreadLocalINS_14RequestContext13StaticContextES1_NS_6detail11DefaultMakeIS2_EES1_E3getEvE5cache)
  %3 = getelementptr inbounds nuw %"struct.folly::detail::SingletonThreadLocalState::LocalCache", ptr %2, i32 0, i32 0
  %4 = load ptr, ptr %3, align 8, !tbaa !972
  store ptr %4, ptr %1, align 8, !tbaa !1401
  %5 = load ptr, ptr %1, align 8, !tbaa !1401
  %6 = icmp ne ptr %5, null
  %7 = xor i1 %6, true
  %8 = xor i1 %7, true
  %9 = zext i1 %8 to i64
  %10 = call i64 @llvm.expect.i64(i64 %9, i64 1)
  %11 = icmp ne i64 %10, 0
  br i1 %11, label %12, label %14

12:                                               ; preds = %0
  %13 = load ptr, ptr %1, align 8, !tbaa !1401
  br label %18

14:                                               ; preds = %0
  %15 = call align 8 ptr @llvm.threadlocal.address.p0(ptr align 8 @_ZZN5folly20SingletonThreadLocalINS_14RequestContext13StaticContextES1_NS_6detail11DefaultMakeIS2_EES1_E3getEvE5cache)
  %16 = call noundef nonnull align 8 dereferenceable(136) ptr @_ZN5folly20SingletonThreadLocalINS_14RequestContext13StaticContextES1_NS_6detail11DefaultMakeIS2_EES1_E7getSlowERNS3_25SingletonThreadLocalState10LocalCacheE(ptr noundef nonnull align 8 dereferenceable(8) %15)
  %17 = getelementptr inbounds nuw %"struct.folly::SingletonThreadLocal<folly::RequestContext::StaticContext, folly::RequestContext>::ObjectWrapper", ptr %16, i32 0, i32 0
  br label %18

18:                                               ; preds = %14, %12
  %19 = phi ptr [ %13, %12 ], [ %17, %14 ]
  call void @llvm.lifetime.end.p0(i64 8, ptr %1) #12
  ret ptr %19
}

; Function Attrs: mustprogress nounwind uwtable
define linkonce_odr noundef ptr @_ZNKSt12__shared_ptrIN5folly14RequestContextELN9__gnu_cxx12_Lock_policyE2EE3getEv(ptr noundef nonnull align 8 dereferenceable(16) %0) #2 comdat align 2 {
  %2 = alloca ptr, align 8
  store ptr %0, ptr %2, align 8, !tbaa !882
  %3 = load ptr, ptr %2, align 8
  %4 = getelementptr inbounds nuw %"class.std::__shared_ptr", ptr %3, i32 0, i32 0
  %5 = load ptr, ptr %4, align 8, !tbaa !884
  ret ptr %5
}

; Function Attrs: mustprogress nounwind uwtable
define linkonce_odr noundef zeroext i1 @_ZNKSt12__shared_ptrIN5folly14RequestContextELN9__gnu_cxx12_Lock_policyE2EEcvbEv(ptr noundef nonnull align 8 dereferenceable(16) %0) #2 comdat align 2 {
  %2 = alloca ptr, align 8
  store ptr %0, ptr %2, align 8, !tbaa !882
  %3 = load ptr, ptr %2, align 8
  %4 = getelementptr inbounds nuw %"class.std::__shared_ptr", ptr %3, i32 0, i32 0
  %5 = load ptr, ptr %4, align 8, !tbaa !884
  %6 = icmp ne ptr %5, null
  ret i1 %6
}

; Function Attrs: mustprogress uwtable
define noundef nonnull align 8 dereferenceable(24) ptr @_ZN5folly14RequestContext16getStaticContextEv() #0 align 2 {
  %1 = call align 1 ptr @llvm.threadlocal.address.p0(ptr align 1 @_ZN5folly12_GLOBAL__N_122getStaticContextCalledE)
  store i8 1, ptr %1, align 1, !tbaa !70
  %2 = call noundef nonnull align 8 dereferenceable(24) ptr @_ZN5folly20SingletonThreadLocalINS_14RequestContext13StaticContextES1_NS_6detail11DefaultMakeIS2_EES1_E3getEv()
  ret ptr %2
}

; Function Attrs: mustprogress uwtable
define noundef ptr @_ZN5folly14RequestContext3getEv() #0 align 2 personality ptr @__gxx_personality_v0 {
  %1 = alloca ptr, align 8
  %2 = alloca ptr, align 8
  %3 = alloca ptr, align 8
  %4 = alloca i32, align 4
  %5 = alloca i32, align 4
  call void @llvm.lifetime.start.p0(i64 8, ptr %2) #12
  %6 = call noundef nonnull align 8 dereferenceable(24) ptr @_ZN5folly14RequestContext16getStaticContextEv()
  %7 = getelementptr inbounds nuw %"struct.folly::RequestContext::StaticContext", ptr %6, i32 0, i32 0
  store ptr %7, ptr %2, align 8, !tbaa !879
  %8 = load ptr, ptr %2, align 8, !tbaa !879
  %9 = call noundef zeroext i1 @_ZNKSt12__shared_ptrIN5folly14RequestContextELN9__gnu_cxx12_Lock_policyE2EEcvbEv(ptr noundef nonnull align 8 dereferenceable(16) %8) #12
  br i1 %9, label %24, label %10

10:                                               ; preds = %0
  %11 = load atomic i8, ptr @_ZGVZN5folly14RequestContext3getEvE14defaultContext acquire, align 8
  %12 = icmp eq i8 %11, 0
  br i1 %12, label %13, label %19, !prof !26

13:                                               ; preds = %10
  %14 = call i32 @__cxa_guard_acquire(ptr @_ZGVZN5folly14RequestContext3getEvE14defaultContext) #12
  %15 = icmp ne i32 %14, 0
  br i1 %15, label %16, label %19

16:                                               ; preds = %13
  invoke void @_ZN5folly14RequestContextC1El(ptr noundef nonnull align 8 dereferenceable(64) @_ZZN5folly14RequestContext3getEvE14defaultContext, i64 noundef 0)
          to label %17 unwind label %20

17:                                               ; preds = %16
  %18 = call i32 @__cxa_atexit(ptr @_ZN5folly14RequestContextD2Ev, ptr @_ZZN5folly14RequestContext3getEvE14defaultContext, ptr @__dso_handle) #12
  call void @__cxa_guard_release(ptr @_ZGVZN5folly14RequestContext3getEvE14defaultContext) #12
  br label %19

19:                                               ; preds = %17, %13, %10
  store ptr @_ZZN5folly14RequestContext3getEvE14defaultContext, ptr %1, align 8
  store i32 1, ptr %5, align 4
  br label %27

20:                                               ; preds = %16
  %21 = landingpad { ptr, i32 }
          cleanup
  %22 = extractvalue { ptr, i32 } %21, 0
  store ptr %22, ptr %3, align 8
  %23 = extractvalue { ptr, i32 } %21, 1
  store i32 %23, ptr %4, align 4
  call void @__cxa_guard_abort(ptr @_ZGVZN5folly14RequestContext3getEvE14defaultContext) #12
  call void @llvm.lifetime.end.p0(i64 8, ptr %2) #12
  br label %29

24:                                               ; preds = %0
  %25 = load ptr, ptr %2, align 8, !tbaa !879
  %26 = call noundef ptr @_ZNKSt12__shared_ptrIN5folly14RequestContextELN9__gnu_cxx12_Lock_policyE2EE3getEv(ptr noundef nonnull align 8 dereferenceable(16) %25) #12
  store ptr %26, ptr %1, align 8
  store i32 1, ptr %5, align 4
  br label %27

27:                                               ; preds = %24, %19
  call void @llvm.lifetime.end.p0(i64 8, ptr %2) #12
  %28 = load ptr, ptr %1, align 8
  ret ptr %28

29:                                               ; preds = %20
  %30 = load ptr, ptr %3, align 8
  %31 = load i32, ptr %4, align 4
  %32 = insertvalue { ptr, i32 } poison, ptr %30, 0
  %33 = insertvalue { ptr, i32 } %32, i32 %31, 1
  resume { ptr, i32 } %33
}