; Function Attrs: mustprogress uwtable
define noundef ptr @_ZN5folly14RequestContext3getEv() local_unnamed_addr #7 align 2 personality ptr @__gxx_personality_v0 {
  %1 = tail call align 1 ptr @llvm.threadlocal.address.p0(ptr align 1 @_ZN5folly12_GLOBAL__N_122getStaticContextCalledE)
  store i8 1, ptr %1, align 1, !tbaa !91
  %2 = tail call align 8 ptr @llvm.threadlocal.address.p0(ptr align 8 @_ZZN5folly20SingletonThreadLocalINS_14RequestContext13StaticContextES1_NS_6detail11DefaultMakeIS2_EES1_E3getEvE5cache)
  %3 = load ptr, ptr %2, align 8, !tbaa !456
  %.not.i.i = icmp eq ptr %3, null
  br i1 %.not.i.i, label %4, label %_ZN5folly14RequestContext16getStaticContextEv.exit, !prof !63

4:                                                ; preds = %0
  %5 = tail call noundef nonnull align 8 dereferenceable(136) ptr @_ZN5folly20SingletonThreadLocalINS_14RequestContext13StaticContextES1_NS_6detail11DefaultMakeIS2_EES1_E7getSlowERNS3_25SingletonThreadLocalState10LocalCacheE(ptr noundef nonnull align 8 dereferenceable(8) %2)
  br label %_ZN5folly14RequestContext16getStaticContextEv.exit

_ZN5folly14RequestContext16getStaticContextEv.exit: ; preds = %0, %4
  %6 = phi ptr [ %5, %4 ], [ %3, %0 ]
  %7 = load ptr, ptr %6, align 8, !tbaa !380
  %.not4 = icmp eq ptr %7, null
  br i1 %.not4, label %8, label %18

8:                                                ; preds = %_ZN5folly14RequestContext16getStaticContextEv.exit
  %9 = load atomic i8, ptr @_ZGVZN5folly14RequestContext3getEvE14defaultContext acquire, align 8
  %10 = icmp eq i8 %9, 0
  br i1 %10, label %11, label %18, !prof !7

11:                                               ; preds = %8
  %12 = tail call i32 @__cxa_guard_acquire(ptr nonnull @_ZGVZN5folly14RequestContext3getEvE14defaultContext) #10
  %.not = icmp eq i32 %12, 0
  br i1 %.not, label %18, label %13

13:                                               ; preds = %11
  invoke void @_ZN5folly14RequestContextC1El(ptr noundef nonnull align 8 dereferenceable(64) @_ZZN5folly14RequestContext3getEvE14defaultContext, i64 noundef 0)
          to label %14 unwind label %16

14:                                               ; preds = %13
  %15 = tail call i32 @__cxa_atexit(ptr nonnull @_ZN5folly14RequestContextD2Ev, ptr nonnull @_ZZN5folly14RequestContext3getEvE14defaultContext, ptr nonnull @__dso_handle) #10
  tail call void @__cxa_guard_release(ptr nonnull @_ZGVZN5folly14RequestContext3getEvE14defaultContext) #10
  br label %18

16:                                               ; preds = %13
  %17 = landingpad { ptr, i32 }
          cleanup
  tail call void @__cxa_guard_abort(ptr nonnull @_ZGVZN5folly14RequestContext3getEvE14defaultContext) #10
  resume { ptr, i32 } %17

18:                                               ; preds = %_ZN5folly14RequestContext16getStaticContextEv.exit, %8, %11, %14
  %.0 = phi ptr [ @_ZZN5folly14RequestContext3getEvE14defaultContext, %14 ], [ @_ZZN5folly14RequestContext3getEvE14defaultContext, %11 ], [ @_ZZN5folly14RequestContext3getEvE14defaultContext, %8 ], [ %7, %_ZN5folly14RequestContext16getStaticContextEv.exit ]
  ret ptr %.0
}